target datalayout = "e-m:e-p270:32:32-p271:32:32-p272:64:64-i64:64-i128:128-f80:128-n8:16:32:64-S128"
target triple = "x86_64-pc-linux-gnu"

%union.SourceSpan = type { i64 }
%struct.Decl_ = type { ptr, ptr, %union.SourceSpan, i64, %union.anon, i32, %union.anon.0, i64, ptr, ptr, ptr, %union.anon.1 }
%union.anon = type { ptr }
%union.anon.0 = type { i16 }
%union.anon.1 = type { %struct.FuncDecl }
%struct.FuncDecl = type { i32, [4 x i8], %struct.Signature_, i32, i32, %union.anon.8 }
%struct.Signature_ = type <{ %struct.CalleeAttributes, i16, i8, i32, i32, [4 x i8], ptr }>
%struct.CalleeAttributes = type { i8 }
%union.anon.8 = type { %struct.anon.9 }
%struct.anon.9 = type { i16, %union.anon.10 }
%union.anon.10 = type { ptr }
%struct.SemaContext_ = type { ptr, ptr, ptr, %struct.CallEnv, ptr, %union.SourceSpan, i32, i32, ptr, i32, ptr, i32, i32, ptr, ptr, i32, %struct.anon.89, ptr, ptr, ptr, %struct.DynamicScope_, ptr }
%struct.CallEnv = type { i16, ptr, %union.anon.60 }
%union.anon.60 = type { ptr }
%struct.anon.89 = type { i32, ptr, ptr, ptr, ptr, ptr, ptr, ptr, ptr, ptr, i8, ptr }
%struct.DynamicScope_ = type { i32, i8, i32, i32, i32, i32, i32, ptr, i32 }

; Function Attrs: nounwind uwtable
define dso_local ptr @sema_find_label_symbol_anywhere(ptr noundef %0, ptr noundef %1) #0 {
  %3 = alloca ptr, align 8
  %4 = alloca ptr, align 8
  %5 = alloca ptr, align 8
  %6 = alloca ptr, align 8
  %7 = alloca i64, align 8
  %8 = alloca i64, align 8
  %9 = alloca ptr, align 8
  store ptr %0, ptr %4, align 8
  store ptr %1, ptr %5, align 8
  %10 = load ptr, ptr %4, align 8
  %11 = getelementptr inbounds %struct.SemaContext_, ptr %10, i32 0, i32 19
  %12 = load ptr, ptr %11, align 8
  store ptr %12, ptr %6, align 8
  %13 = load ptr, ptr %6, align 8
  %14 = icmp ne ptr %13, null
  br i1 %14, label %15, label %21

15:                                               ; preds = %2
  %16 = load ptr, ptr %4, align 8
  %17 = getelementptr inbounds %struct.SemaContext_, ptr %16, i32 0, i32 20
  %18 = getelementptr inbounds %struct.DynamicScope_, ptr %17, i32 0, i32 4
  %19 = load i32, ptr %18, align 8
  %20 = icmp ne i32 %19, 0
  br i1 %20, label %22, label %21

21:                                               ; preds = %15, %2
  store ptr null, ptr %3, align 8
  br label %48

22:                                               ; preds = %15
  store i64 0, ptr %7, align 8
  %23 = load ptr, ptr %4, align 8
  %24 = getelementptr inbounds %struct.SemaContext_, ptr %23, i32 0, i32 20
  %25 = getelementptr inbounds %struct.DynamicScope_, ptr %24, i32 0, i32 4
  %26 = load i32, ptr %25, align 8
  %27 = sub i32 %26, 1
  %28 = zext i32 %27 to i64
  store i64 %28, ptr %8, align 8
  br label %29

29:                                               ; preds = %46, %22
  %30 = load i64, ptr %8, align 8
  %31 = load i64, ptr %7, align 8
  %32 = icmp sge i64 %30, %31
  br i1 %32, label %33, label %47

33:                                               ; preds = %29
  %34 = load ptr, ptr %6, align 8
  %35 = load i64, ptr %8, align 8
  %36 = add nsw i64 %35, -1
  store i64 %36, ptr %8, align 8
  %37 = getelementptr inbounds ptr, ptr %34, i64 %35
  %38 = load ptr, ptr %37, align 8
  store ptr %38, ptr %9, align 8
  %39 = load ptr, ptr %9, align 8
  %40 = getelementptr inbounds %struct.Decl_, ptr %39, i32 0, i32 0
  %41 = load ptr, ptr %40, align 8
  %42 = load ptr, ptr %5, align 8
  %43 = icmp eq ptr %41, %42
  br i1 %43, label %44, label %46

44:                                               ; preds = %33
  %45 = load ptr, ptr %9, align 8
  store ptr %45, ptr %3, align 8
  br label %48

46:                                               ; preds = %33
  br label %29, !llvm.loop !27

47:                                               ; preds = %29
  store ptr null, ptr %3, align 8
  br label %48

48:                                               ; preds = %47, %44, %21
  %49 = load ptr, ptr %3, align 8
  ret ptr %49
}