; Function Attrs: nofree norecurse nosync nounwind memory(read, inaccessiblemem: none) uwtable
define dso_local noundef ptr @sema_find_label_symbol_anywhere(ptr nocapture noundef readonly %0, ptr noundef readnone %1) local_unnamed_addr #0 {
  %3 = getelementptr inbounds i8, ptr %0, i64 240
  %4 = load ptr, ptr %3, align 8
  %.not = icmp eq ptr %4, null
  br i1 %.not, label %.loopexit, label %5

5:                                                ; preds = %2
  %6 = getelementptr inbounds i8, ptr %0, i64 264
  %7 = load i32, ptr %6, align 8
  %.not14 = icmp eq i32 %7, 0
  br i1 %.not14, label %.loopexit, label %8

8:                                                ; preds = %5
  %9 = add i32 %7, -1
  %10 = zext i32 %9 to i64
  br label %11

11:                                               ; preds = %13, %8
  %.011 = phi i64 [ %10, %8 ], [ %14, %13 ]
  %12 = icmp sgt i64 %.011, -1
  br i1 %12, label %13, label %.loopexit

13:                                               ; preds = %11
  %14 = add nsw i64 %.011, -1
  %15 = getelementptr inbounds ptr, ptr %4, i64 %.011
  %16 = load ptr, ptr %15, align 8
  %17 = load ptr, ptr %16, align 8
  %18 = icmp eq ptr %17, %1
  br i1 %18, label %.loopexit, label %11, !llvm.loop !26

.loopexit:                                        ; preds = %11, %13, %2, %5
  %.0 = phi ptr [ null, %5 ], [ null, %2 ], [ null, %11 ], [ %16, %13 ]
  ret ptr %.0
}